target datalayout = "e-m:e-p270:32:32-p271:32:32-p272:64:64-i64:64-i128:128-f80:128-n8:16:32:64-S128"
target triple = "x86_64-pc-linux-gnu"

%struct.evp_md_ctx_st = type { ptr, ptr, ptr, i64, ptr, ptr, ptr, ptr, ptr }

@.str = private unnamed_addr constant [31 x i8] c"../openssl/crypto/evp/digest.c\00", align 1

; Function Attrs: nounwind uwtable
define internal i32 @evp_md_ctx_reset_ex(ptr noundef %0, i32 noundef %1) #0 {
  %3 = alloca i32, align 4
  %4 = alloca ptr, align 8
  %5 = alloca i32, align 4
  store ptr %0, ptr %4, align 8, !tbaa !3
  store i32 %1, ptr %5, align 4, !tbaa !8
  %6 = load ptr, ptr %4, align 8, !tbaa !3
  %7 = icmp eq ptr %6, null
  br i1 %7, label %8, label %9

8:                                                ; preds = %2
  store i32 1, ptr %3, align 4
  br label %27

9:                                                ; preds = %2
  %10 = load ptr, ptr %4, align 8, !tbaa !3
  %11 = call i32 @EVP_MD_CTX_test_flags(ptr noundef %10, i32 noundef 1024)
  %12 = icmp ne i32 %11, 0
  br i1 %12, label %19, label %13

13:                                               ; preds = %9
  %14 = load ptr, ptr %4, align 8, !tbaa !3
  %15 = getelementptr inbounds nuw %struct.evp_md_ctx_st, ptr %14, i32 0, i32 5
  %16 = load ptr, ptr %15, align 8, !tbaa !30
  call void @EVP_PKEY_CTX_free(ptr noundef %16)
  %17 = load ptr, ptr %4, align 8, !tbaa !3
  %18 = getelementptr inbounds nuw %struct.evp_md_ctx_st, ptr %17, i32 0, i32 5
  store ptr null, ptr %18, align 8, !tbaa !30
  br label %19

19:                                               ; preds = %13, %9
  %20 = load ptr, ptr %4, align 8, !tbaa !3
  %21 = load i32, ptr %5, align 4, !tbaa !8
  call void @evp_md_ctx_clear_digest(ptr noundef %20, i32 noundef 0, i32 noundef %21)
  %22 = load i32, ptr %5, align 4, !tbaa !8
  %23 = icmp ne i32 %22, 0
  br i1 %23, label %26, label %24

24:                                               ; preds = %19
  %25 = load ptr, ptr %4, align 8, !tbaa !3
  call void @OPENSSL_cleanse(ptr noundef %25, i64 noundef 72)
  br label %26

26:                                               ; preds = %24, %19
  store i32 1, ptr %3, align 4
  br label %27

27:                                               ; preds = %26, %8
  %28 = load i32, ptr %3, align 4
  ret i32 %28
}

; Function Attrs: nounwind uwtable
define i32 @EVP_MD_CTX_reset(ptr noundef %0) #0 {
  %2 = alloca ptr, align 8
  store ptr %0, ptr %2, align 8, !tbaa !3
  %3 = load ptr, ptr %2, align 8, !tbaa !3
  %4 = call i32 @evp_md_ctx_reset_ex(ptr noundef %3, i32 noundef 0)
  ret i32 %4
}

; Function Attrs: nounwind uwtable
define void @EVP_MD_CTX_free(ptr noundef %0) #0 {
  %2 = alloca ptr, align 8
  store ptr %0, ptr %2, align 8, !tbaa !3
  %3 = load ptr, ptr %2, align 8, !tbaa !3
  %4 = icmp eq ptr %3, null
  br i1 %4, label %5, label %6

5:                                                ; preds = %1
  br label %10

6:                                                ; preds = %1
  %7 = load ptr, ptr %2, align 8, !tbaa !3
  %8 = call i32 @EVP_MD_CTX_reset(ptr noundef %7)
  %9 = load ptr, ptr %2, align 8, !tbaa !3
  call void @CRYPTO_free(ptr noundef %9, ptr noundef @.str, i32 noundef 140)
  br label %10

10:                                               ; preds = %6, %5
  ret void
}

; Function Attrs: nounwind uwtable
define i32 @EVP_DigestInit_ex(ptr noundef %0, ptr noundef %1, ptr noundef %2) #0 {
  %4 = alloca ptr, align 8
  %5 = alloca ptr, align 8
  %6 = alloca ptr, align 8
  store ptr %0, ptr %4, align 8, !tbaa !3
  store ptr %1, ptr %5, align 8, !tbaa !28
  store ptr %2, ptr %6, align 8, !tbaa !44
  %7 = load ptr, ptr %4, align 8, !tbaa !3
  %8 = load ptr, ptr %5, align 8, !tbaa !28
  %9 = load ptr, ptr %6, align 8, !tbaa !44
  %10 = call i32 @evp_md_init_internal(ptr noundef %7, ptr noundef %8, ptr noundef null, ptr noundef %9)
  ret i32 %10
}

; Function Attrs: nounwind uwtable
define ptr @EVP_MD_CTX_new() #0 {
  %1 = call noalias ptr @CRYPTO_zalloc(i64 noundef 72, ptr noundef @.str, i32 noundef 131)
  ret ptr %1
}

; Function Attrs: nounwind uwtable
define i32 @EVP_Digest(ptr noundef %0, i64 noundef %1, ptr noundef %2, ptr noundef %3, ptr noundef %4, ptr noundef %5) #0 {
  %7 = alloca i32, align 4
  %8 = alloca ptr, align 8
  %9 = alloca i64, align 8
  %10 = alloca ptr, align 8
  %11 = alloca ptr, align 8
  %12 = alloca ptr, align 8
  %13 = alloca ptr, align 8
  %14 = alloca ptr, align 8
  %15 = alloca i32, align 4
  %16 = alloca i32, align 4
  store ptr %0, ptr %8, align 8, !tbaa !61
  store i64 %1, ptr %9, align 8, !tbaa !62
  store ptr %2, ptr %10, align 8, !tbaa !37
  store ptr %3, ptr %11, align 8, !tbaa !64
  store ptr %4, ptr %12, align 8, !tbaa !28
  store ptr %5, ptr %13, align 8, !tbaa !44
  call void @llvm.lifetime.start.p0(i64 8, ptr %14) #8
  %17 = call ptr @EVP_MD_CTX_new()
  store ptr %17, ptr %14, align 8, !tbaa !3
  call void @llvm.lifetime.start.p0(i64 4, ptr %15) #8
  %18 = load ptr, ptr %14, align 8, !tbaa !3
  %19 = icmp eq ptr %18, null
  br i1 %19, label %20, label %21

20:                                               ; preds = %6
  store i32 0, ptr %7, align 4
  store i32 1, ptr %16, align 4
  br label %45

21:                                               ; preds = %6
  %22 = load ptr, ptr %14, align 8, !tbaa !3
  call void @EVP_MD_CTX_set_flags(ptr noundef %22, i32 noundef 1)
  %23 = load ptr, ptr %14, align 8, !tbaa !3
  %24 = load ptr, ptr %12, align 8, !tbaa !28
  %25 = load ptr, ptr %13, align 8, !tbaa !44
  %26 = call i32 @EVP_DigestInit_ex(ptr noundef %23, ptr noundef %24, ptr noundef %25)
  %27 = icmp ne i32 %26, 0
  br i1 %27, label %28, label %40

28:                                               ; preds = %21
  %29 = load ptr, ptr %14, align 8, !tbaa !3
  %30 = load ptr, ptr %8, align 8, !tbaa !61
  %31 = load i64, ptr %9, align 8, !tbaa !62
  %32 = call i32 @EVP_DigestUpdate(ptr noundef %29, ptr noundef %30, i64 noundef %31)
  %33 = icmp ne i32 %32, 0
  br i1 %33, label %34, label %40

34:                                               ; preds = %28
  %35 = load ptr, ptr %14, align 8, !tbaa !3
  %36 = load ptr, ptr %10, align 8, !tbaa !37
  %37 = load ptr, ptr %11, align 8, !tbaa !64
  %38 = call i32 @EVP_DigestFinal_ex(ptr noundef %35, ptr noundef %36, ptr noundef %37)
  %39 = icmp ne i32 %38, 0
  br label %40

40:                                               ; preds = %34, %28, %21
  %41 = phi i1 [ false, %28 ], [ false, %21 ], [ %39, %34 ]
  %42 = zext i1 %41 to i32
  store i32 %42, ptr %15, align 4, !tbaa !8
  %43 = load ptr, ptr %14, align 8, !tbaa !3
  call void @EVP_MD_CTX_free(ptr noundef %43)
  %44 = load i32, ptr %15, align 4, !tbaa !8
  store i32 %44, ptr %7, align 4
  store i32 1, ptr %16, align 4
  br label %45

45:                                               ; preds = %40, %20
  call void @llvm.lifetime.end.p0(i64 4, ptr %15) #8
  call void @llvm.lifetime.end.p0(i64 8, ptr %14) #8
  %46 = load i32, ptr %7, align 4
  ret i32 %46
}