; Function Attrs: nounwind uwtable
define range(i32 0, 2) i32 @EVP_Digest(ptr noundef %0, i64 noundef %1, ptr noundef %2, ptr noundef captures(address_is_null) %3, ptr noundef %4, ptr noundef %5) local_unnamed_addr #0 {
  %7 = tail call noalias ptr @CRYPTO_zalloc(i64 noundef 72, ptr noundef nonnull @.str, i32 noundef 131) #8
  %8 = icmp eq ptr %7, null
  br i1 %8, label %23, label %9

9:                                                ; preds = %6
  tail call void @EVP_MD_CTX_set_flags(ptr noundef nonnull %7, i32 noundef 1) #8
  %10 = tail call fastcc i32 @evp_md_init_internal(ptr noundef nonnull %7, ptr noundef %4, ptr noundef null, ptr noundef %5)
  %.not = icmp eq i32 %10, 0
  br i1 %.not, label %17, label %11

11:                                               ; preds = %9
  %12 = tail call i32 @EVP_DigestUpdate(ptr noundef nonnull %7, ptr noundef %0, i64 noundef %1)
  %.not14 = icmp eq i32 %12, 0
  br i1 %.not14, label %17, label %13

13:                                               ; preds = %11
  %14 = tail call i32 @EVP_DigestFinal_ex(ptr noundef nonnull %7, ptr noundef %2, ptr noundef %3)
  %15 = icmp ne i32 %14, 0
  %16 = zext i1 %15 to i32
  br label %17

17:                                               ; preds = %9, %11, %13
  %18 = phi i32 [ 0, %11 ], [ 0, %9 ], [ %16, %13 ]
  %19 = tail call i32 @EVP_MD_CTX_test_flags(ptr noundef nonnull %7, i32 noundef 1024) #8
  %.not.i.i.i = icmp eq i32 %19, 0
  br i1 %.not.i.i.i, label %20, label %EVP_MD_CTX_free.exit

20:                                               ; preds = %17
  %21 = getelementptr inbounds nuw i8, ptr %7, i64 40
  %22 = load ptr, ptr %21, align 8, !tbaa !26
  tail call void @EVP_PKEY_CTX_free(ptr noundef %22) #8
  store ptr null, ptr %21, align 8, !tbaa !26
  br label %EVP_MD_CTX_free.exit

EVP_MD_CTX_free.exit:                             ; preds = %17, %20
  tail call void @evp_md_ctx_clear_digest(ptr noundef nonnull %7, i32 noundef 0, i32 noundef 0)
  tail call void @OPENSSL_cleanse(ptr noundef nonnull %7, i64 noundef 72) #8
  tail call void @CRYPTO_free(ptr noundef nonnull %7, ptr noundef nonnull @.str, i32 noundef 140) #8
  br label %23

23:                                               ; preds = %6, %EVP_MD_CTX_free.exit
  %.0 = phi i32 [ %18, %EVP_MD_CTX_free.exit ], [ 0, %6 ]
  ret i32 %.0
}